; ModuleID = '9/1282.c'
source_filename = "9/1282.c"
target datalayout = "e-m:e-p270:32:32-p271:32:32-p272:64:64-i64:64-f80:128-n8:16:32:64-S128"
target triple = "x86_64-pc-linux-gnu"

%struct.ILL = type { [10 x i8], i32 }

@.str = private unnamed_addr constant [3 x i8] c"%d\00", align 1
@.str.1 = private unnamed_addr constant [3 x i8] c"%s\00", align 1
@.str.2 = private unnamed_addr constant [4 x i8] c"%s\0A\00", align 1

; Function Attrs: noinline nounwind uwtable
define dso_local i32 @main() #0 {
  %1 = alloca i32, align 4
  %2 = alloca [100 x %struct.ILL], align 16
  %3 = alloca i32, align 4
  %4 = alloca i32, align 4
  %5 = alloca i32, align 4
  %6 = alloca i32, align 4
  %7 = alloca [100 x i32], align 16
  %8 = alloca i32, align 4
  %9 = alloca [100 x [10 x i8]], align 16
  %10 = alloca [10 x i8], align 1
  store i32 0, i32* %1, align 4
  store i32 0, i32* %6, align 4
  %11 = call i32 (i8*, ...) @__isoc99_scanf(i8* getelementptr inbounds ([3 x i8], [3 x i8]* @.str, i64 0, i64 0), i32* %3)
  store i32 0, i32* %4, align 4
  br label %12

12:                                               ; preds = %56, %0
  %13 = load i32, i32* %4, align 4
  %14 = load i32, i32* %3, align 4
  %15 = icmp slt i32 %13, %14
  br i1 %15, label %16, label %59

16:                                               ; preds = %12
  %17 = load i32, i32* %4, align 4
  %18 = sext i32 %17 to i64
  %19 = getelementptr inbounds [100 x %struct.ILL], [100 x %struct.ILL]* %2, i64 0, i64 %18
  %20 = getelementptr inbounds %struct.ILL, %struct.ILL* %19, i32 0, i32 0
  %21 = getelementptr inbounds [10 x i8], [10 x i8]* %20, i64 0, i64 0
  %22 = call i32 (i8*, ...) @__isoc99_scanf(i8* getelementptr inbounds ([3 x i8], [3 x i8]* @.str.1, i64 0, i64 0), i8* %21)
  %23 = load i32, i32* %4, align 4
  %24 = sext i32 %23 to i64
  %25 = getelementptr inbounds [100 x %struct.ILL], [100 x %struct.ILL]* %2, i64 0, i64 %24
  %26 = getelementptr inbounds %struct.ILL, %struct.ILL* %25, i32 0, i32 1
  %27 = call i32 (i8*, ...) @__isoc99_scanf(i8* getelementptr inbounds ([3 x i8], [3 x i8]* @.str, i64 0, i64 0), i32* %26)
  %28 = load i32, i32* %4, align 4
  %29 = sext i32 %28 to i64
  %30 = getelementptr inbounds [100 x %struct.ILL], [100 x %struct.ILL]* %2, i64 0, i64 %29
  %31 = getelementptr inbounds %struct.ILL, %struct.ILL* %30, i32 0, i32 1
  %32 = load i32, i32* %31, align 4
  %33 = icmp sge i32 %32, 60
  br i1 %33, label %34, label %55

34:                                               ; preds = %16
  %35 = load i32, i32* %6, align 4
  %36 = sext i32 %35 to i64
  %37 = getelementptr inbounds [100 x [10 x i8]], [100 x [10 x i8]]* %9, i64 0, i64 %36
  %38 = getelementptr inbounds [10 x i8], [10 x i8]* %37, i64 0, i64 0
  %39 = load i32, i32* %4, align 4
  %40 = sext i32 %39 to i64
  %41 = getelementptr inbounds [100 x %struct.ILL], [100 x %struct.ILL]* %2, i64 0, i64 %40
  %42 = getelementptr inbounds %struct.ILL, %struct.ILL* %41, i32 0, i32 0
  %43 = getelementptr inbounds [10 x i8], [10 x i8]* %42, i64 0, i64 0
  %44 = call i8* @strcpy(i8* %38, i8* %43) #3
  %45 = load i32, i32* %4, align 4
  %46 = sext i32 %45 to i64
  %47 = getelementptr inbounds [100 x %struct.ILL], [100 x %struct.ILL]* %2, i64 0, i64 %46
  %48 = getelementptr inbounds %struct.ILL, %struct.ILL* %47, i32 0, i32 1
  %49 = load i32, i32* %48, align 4
  %50 = load i32, i32* %6, align 4
  %51 = sext i32 %50 to i64
  %52 = getelementptr inbounds [100 x i32], [100 x i32]* %7, i64 0, i64 %51
  store i32 %49, i32* %52, align 4
  %53 = load i32, i32* %6, align 4
  %54 = add nsw i32 %53, 1
  store i32 %54, i32* %6, align 4
  br label %55

55:                                               ; preds = %34, %16
  br label %56

56:                                               ; preds = %55
  %57 = load i32, i32* %4, align 4
  %58 = add nsw i32 %57, 1
  store i32 %58, i32* %4, align 4
  br label %12

59:                                               ; preds = %12
  store i32 0, i32* %4, align 4
  br label %60

60:                                               ; preds = %130, %59
  %61 = load i32, i32* %4, align 4
  %62 = load i32, i32* %6, align 4
  %63 = sub nsw i32 %62, 1
  %64 = icmp slt i32 %61, %63
  br i1 %64, label %65, label %133

65:                                               ; preds = %60
  store i32 0, i32* %5, align 4
  br label %66

66:                                               ; preds = %126, %65
  %67 = load i32, i32* %5, align 4
  %68 = load i32, i32* %6, align 4
  %69 = load i32, i32* %4, align 4
  %70 = sub nsw i32 %68, %69
  %71 = sub nsw i32 %70, 1
  %72 = icmp slt i32 %67, %71
  br i1 %72, label %73, label %129

73:                                               ; preds = %66
  %74 = load i32, i32* %5, align 4
  %75 = sext i32 %74 to i64
  %76 = getelementptr inbounds [100 x i32], [100 x i32]* %7, i64 0, i64 %75
  %77 = load i32, i32* %76, align 4
  %78 = load i32, i32* %5, align 4
  %79 = add nsw i32 %78, 1
  %80 = sext i32 %79 to i64
  %81 = getelementptr inbounds [100 x i32], [100 x i32]* %7, i64 0, i64 %80
  %82 = load i32, i32* %81, align 4
  %83 = icmp slt i32 %77, %82
  br i1 %83, label %84, label %125

84:                                               ; preds = %73
  %85 = getelementptr inbounds [10 x i8], [10 x i8]* %10, i64 0, i64 0
  %86 = load i32, i32* %5, align 4
  %87 = add nsw i32 %86, 1
  %88 = sext i32 %87 to i64
  %89 = getelementptr inbounds [100 x [10 x i8]], [100 x [10 x i8]]* %9, i64 0, i64 %88
  %90 = getelementptr inbounds [10 x i8], [10 x i8]* %89, i64 0, i64 0
  %91 = call i8* @strcpy(i8* %85, i8* %90) #3
  %92 = load i32, i32* %5, align 4
  %93 = add nsw i32 %92, 1
  %94 = sext i32 %93 to i64
  %95 = getelementptr inbounds [100 x [10 x i8]], [100 x [10 x i8]]* %9, i64 0, i64 %94
  %96 = getelementptr inbounds [10 x i8], [10 x i8]* %95, i64 0, i64 0
  %97 = load i32, i32* %5, align 4
  %98 = sext i32 %97 to i64
  %99 = getelementptr inbounds [100 x [10 x i8]], [100 x [10 x i8]]* %9, i64 0, i64 %98
  %100 = getelementptr inbounds [10 x i8], [10 x i8]* %99, i64 0, i64 0
  %101 = call i8* @strcpy(i8* %96, i8* %100) #3
  %102 = load i32, i32* %5, align 4
  %103 = sext i32 %102 to i64
  %104 = getelementptr inbounds [100 x [10 x i8]], [100 x [10 x i8]]* %9, i64 0, i64 %103
  %105 = getelementptr inbounds [10 x i8], [10 x i8]* %104, i64 0, i64 0
  %106 = getelementptr inbounds [10 x i8], [10 x i8]* %10, i64 0, i64 0
  %107 = call i8* @strcpy(i8* %105, i8* %106) #3
  %108 = load i32, i32* %5, align 4
  %109 = sext i32 %108 to i64
  %110 = getelementptr inbounds [100 x i32], [100 x i32]* %7, i64 0, i64 %109
  %111 = load i32, i32* %110, align 4
  store i32 %111, i32* %8, align 4
  %112 = load i32, i32* %5, align 4
  %113 = add nsw i32 %112, 1
  %114 = sext i32 %113 to i64
  %115 = getelementptr inbounds [100 x i32], [100 x i32]* %7, i64 0, i64 %114
  %116 = load i32, i32* %115, align 4
  %117 = load i32, i32* %5, align 4
  %118 = sext i32 %117 to i64
  %119 = getelementptr inbounds [100 x i32], [100 x i32]* %7, i64 0, i64 %118
  store i32 %116, i32* %119, align 4
  %120 = load i32, i32* %8, align 4
  %121 = load i32, i32* %5, align 4
  %122 = add nsw i32 %121, 1
  %123 = sext i32 %122 to i64
  %124 = getelementptr inbounds [100 x i32], [100 x i32]* %7, i64 0, i64 %123
  store i32 %120, i32* %124, align 4
  br label %125

125:                                              ; preds = %84, %73
  br label %126

126:                                              ; preds = %125
  %127 = load i32, i32* %5, align 4
  %128 = add nsw i32 %127, 1
  store i32 %128, i32* %5, align 4
  br label %66

129:                                              ; preds = %66
  br label %130

130:                                              ; preds = %129
  %131 = load i32, i32* %4, align 4
  %132 = add nsw i32 %131, 1
  store i32 %132, i32* %4, align 4
  br label %60

133:                                              ; preds = %60
  store i32 0, i32* %4, align 4
  br label %134

134:                                              ; preds = %144, %133
  %135 = load i32, i32* %4, align 4
  %136 = load i32, i32* %6, align 4
  %137 = icmp slt i32 %135, %136
  br i1 %137, label %138, label %147

138:                                              ; preds = %134
  %139 = load i32, i32* %4, align 4
  %140 = sext i32 %139 to i64
  %141 = getelementptr inbounds [100 x [10 x i8]], [100 x [10 x i8]]* %9, i64 0, i64 %140
  %142 = getelementptr inbounds [10 x i8], [10 x i8]* %141, i64 0, i64 0
  %143 = call i32 @puts(i8* %142)
  br label %144

144:                                              ; preds = %138
  %145 = load i32, i32* %4, align 4
  %146 = add nsw i32 %145, 1
  store i32 %146, i32* %4, align 4
  br label %134

147:                                              ; preds = %134
  store i32 0, i32* %4, align 4
  br label %148

148:                                              ; preds = %167, %147
  %149 = load i32, i32* %4, align 4
  %150 = load i32, i32* %3, align 4
  %151 = icmp slt i32 %149, %150
  br i1 %151, label %152, label %170

152:                                              ; preds = %148
  %153 = load i32, i32* %4, align 4
  %154 = sext i32 %153 to i64
  %155 = getelementptr inbounds [100 x %struct.ILL], [100 x %struct.ILL]* %2, i64 0, i64 %154
  %156 = getelementptr inbounds %struct.ILL, %struct.ILL* %155, i32 0, i32 1
  %157 = load i32, i32* %156, align 4
  %158 = icmp slt i32 %157, 60
  br i1 %158, label %159, label %166

159:                                              ; preds = %152
  %160 = load i32, i32* %4, align 4
  %161 = sext i32 %160 to i64
  %162 = getelementptr inbounds [100 x %struct.ILL], [100 x %struct.ILL]* %2, i64 0, i64 %161
  %163 = getelementptr inbounds %struct.ILL, %struct.ILL* %162, i32 0, i32 0
  %164 = getelementptr inbounds [10 x i8], [10 x i8]* %163, i64 0, i64 0
  %165 = call i32 (i8*, ...) @printf(i8* getelementptr inbounds ([4 x i8], [4 x i8]* @.str.2, i64 0, i64 0), i8* %164)
  br label %166

166:                                              ; preds = %159, %152
  br label %167

167:                                              ; preds = %166
  %168 = load i32, i32* %4, align 4
  %169 = add nsw i32 %168, 1
  store i32 %169, i32* %4, align 4
  br label %148

170:                                              ; preds = %148
  ret i32 0
}

declare dso_local i32 @__isoc99_scanf(i8*, ...) #1

; Function Attrs: nounwind
declare dso_local i8* @strcpy(i8*, i8*) #2

declare dso_local i32 @puts(i8*) #1

declare dso_local i32 @printf(i8*, ...) #1


!llvm.module.flags = !{!0}
!llvm.ident = !{!1}

!0 = !{i32 1, !"wchar_size", i32 4}
!1 = !{!"clang version 10.0.0-4ubuntu1 "}
